target datalayout = "e-m:e-p270:32:32-p271:32:32-p272:64:64-i64:64-i128:128-f80:128-n8:16:32:64-S128"
target triple = "x86_64-pc-linux-gnu"

%struct._zval_struct = type { %union._zend_value, %union.anon, %union.anon.2 }
%union._zend_value = type { i64 }
%union.anon = type { i32 }
%union.anon.2 = type { i32 }
%struct._zend_refcounted_h = type { i32, %union.anon.3 }
%union.anon.3 = type { i32 }
%struct._xmlNode = type { ptr, i32, ptr, ptr, ptr, ptr, ptr, ptr, ptr, ptr, ptr, ptr, ptr, ptr, i16, i16 }
%struct._php_libxml_node_ptr = type { ptr, i32, ptr }
%struct._zend_object = type { %struct._zend_refcounted_h, i32, ptr, ptr, ptr, [1 x %struct._zval_struct] }
%struct._php_libxml_node_object = type { ptr, ptr, %struct._zend_object }

; Function Attrs: nounwind uwtable
define i32 @php_libxml_decrement_node_ptr(ptr noundef %0) #0 {
  %2 = alloca ptr, align 8
  %3 = alloca i32, align 4
  %4 = alloca ptr, align 8
  store ptr %0, ptr %2, align 8
  store i32 -1, ptr %3, align 4
  %5 = load ptr, ptr %2, align 8
  %6 = icmp ne ptr %5, null
  br i1 %6, label %7, label %37

7:                                                ; preds = %1
  %8 = load ptr, ptr %2, align 8
  %9 = getelementptr inbounds %struct._php_libxml_node_object, ptr %8, i32 0, i32 0
  %10 = load ptr, ptr %9, align 8
  %11 = icmp ne ptr %10, null
  br i1 %11, label %12, label %37

12:                                               ; preds = %7
  %13 = load ptr, ptr %2, align 8
  %14 = getelementptr inbounds %struct._php_libxml_node_object, ptr %13, i32 0, i32 0
  %15 = load ptr, ptr %14, align 8
  store ptr %15, ptr %4, align 8
  %16 = load ptr, ptr %4, align 8
  %17 = getelementptr inbounds %struct._php_libxml_node_ptr, ptr %16, i32 0, i32 1
  %18 = load i32, ptr %17, align 8
  %19 = add nsw i32 %18, -1
  store i32 %19, ptr %17, align 8
  store i32 %19, ptr %3, align 4
  %20 = load i32, ptr %3, align 4
  %21 = icmp eq i32 %20, 0
  br i1 %21, label %22, label %34

22:                                               ; preds = %12
  %23 = load ptr, ptr %4, align 8
  %24 = getelementptr inbounds %struct._php_libxml_node_ptr, ptr %23, i32 0, i32 0
  %25 = load ptr, ptr %24, align 8
  %26 = icmp ne ptr %25, null
  br i1 %26, label %27, label %32

27:                                               ; preds = %22
  %28 = load ptr, ptr %4, align 8
  %29 = getelementptr inbounds %struct._php_libxml_node_ptr, ptr %28, i32 0, i32 0
  %30 = load ptr, ptr %29, align 8
  %31 = getelementptr inbounds %struct._xmlNode, ptr %30, i32 0, i32 0
  store ptr null, ptr %31, align 8
  br label %32

32:                                               ; preds = %27, %22
  %33 = load ptr, ptr %4, align 8
  call void @_efree(ptr noundef %33)
  br label %34

34:                                               ; preds = %32, %12
  %35 = load ptr, ptr %2, align 8
  %36 = getelementptr inbounds %struct._php_libxml_node_object, ptr %35, i32 0, i32 0
  store ptr null, ptr %36, align 8
  br label %37

37:                                               ; preds = %34, %7, %1
  %38 = load i32, ptr %3, align 4
  ret i32 %38
}

; Function Attrs: nounwind uwtable
define i32 @php_libxml_increment_node_ptr(ptr noundef %0, ptr noundef %1, ptr noundef %2) #0 {
  %4 = alloca i32, align 4
  %5 = alloca ptr, align 8
  %6 = alloca ptr, align 8
  %7 = alloca ptr, align 8
  %8 = alloca i32, align 4
  store ptr %0, ptr %5, align 8
  store ptr %1, ptr %6, align 8
  store ptr %2, ptr %7, align 8
  store i32 -1, ptr %8, align 4
  %9 = load ptr, ptr %5, align 8
  %10 = icmp ne ptr %9, null
  br i1 %10, label %11, label %91

11:                                               ; preds = %3
  %12 = load ptr, ptr %6, align 8
  %13 = icmp ne ptr %12, null
  br i1 %13, label %14, label %91

14:                                               ; preds = %11
  %15 = load ptr, ptr %5, align 8
  %16 = getelementptr inbounds %struct._php_libxml_node_object, ptr %15, i32 0, i32 0
  %17 = load ptr, ptr %16, align 8
  %18 = icmp ne ptr %17, null
  br i1 %18, label %19, label %37

19:                                               ; preds = %14
  %20 = load ptr, ptr %5, align 8
  %21 = getelementptr inbounds %struct._php_libxml_node_object, ptr %20, i32 0, i32 0
  %22 = load ptr, ptr %21, align 8
  %23 = getelementptr inbounds %struct._php_libxml_node_ptr, ptr %22, i32 0, i32 0
  %24 = load ptr, ptr %23, align 8
  %25 = load ptr, ptr %6, align 8
  %26 = icmp eq ptr %24, %25
  br i1 %26, label %27, label %33

27:                                               ; preds = %19
  %28 = load ptr, ptr %5, align 8
  %29 = getelementptr inbounds %struct._php_libxml_node_object, ptr %28, i32 0, i32 0
  %30 = load ptr, ptr %29, align 8
  %31 = getelementptr inbounds %struct._php_libxml_node_ptr, ptr %30, i32 0, i32 1
  %32 = load i32, ptr %31, align 8
  store i32 %32, ptr %4, align 4
  br label %93

33:                                               ; preds = %19
  %34 = load ptr, ptr %5, align 8
  %35 = call i32 @php_libxml_decrement_node_ptr(ptr noundef %34)
  br label %36

36:                                               ; preds = %33
  br label %37

37:                                               ; preds = %36, %14
  %38 = load ptr, ptr %6, align 8
  %39 = getelementptr inbounds %struct._xmlNode, ptr %38, i32 0, i32 0
  %40 = load ptr, ptr %39, align 8
  %41 = icmp ne ptr %40, null
  br i1 %41, label %42, label %67

42:                                               ; preds = %37
  %43 = load ptr, ptr %6, align 8
  %44 = getelementptr inbounds %struct._xmlNode, ptr %43, i32 0, i32 0
  %45 = load ptr, ptr %44, align 8
  %46 = load ptr, ptr %5, align 8
  %47 = getelementptr inbounds %struct._php_libxml_node_object, ptr %46, i32 0, i32 0
  store ptr %45, ptr %47, align 8
  %48 = load ptr, ptr %5, align 8
  %49 = getelementptr inbounds %struct._php_libxml_node_object, ptr %48, i32 0, i32 0
  %50 = load ptr, ptr %49, align 8
  %51 = getelementptr inbounds %struct._php_libxml_node_ptr, ptr %50, i32 0, i32 1
  %52 = load i32, ptr %51, align 8
  %53 = add nsw i32 %52, 1
  store i32 %53, ptr %51, align 8
  store i32 %53, ptr %8, align 4
  %54 = load ptr, ptr %5, align 8
  %55 = getelementptr inbounds %struct._php_libxml_node_object, ptr %54, i32 0, i32 0
  %56 = load ptr, ptr %55, align 8
  %57 = getelementptr inbounds %struct._php_libxml_node_ptr, ptr %56, i32 0, i32 2
  %58 = load ptr, ptr %57, align 8
  %59 = icmp eq ptr %58, null
  br i1 %59, label %60, label %66

60:                                               ; preds = %42
  %61 = load ptr, ptr %7, align 8
  %62 = load ptr, ptr %5, align 8
  %63 = getelementptr inbounds %struct._php_libxml_node_object, ptr %62, i32 0, i32 0
  %64 = load ptr, ptr %63, align 8
  %65 = getelementptr inbounds %struct._php_libxml_node_ptr, ptr %64, i32 0, i32 2
  store ptr %61, ptr %65, align 8
  br label %66

66:                                               ; preds = %60, %42
  br label %90

67:                                               ; preds = %37
  %68 = call noalias ptr @_emalloc_24()
  %69 = load ptr, ptr %5, align 8
  %70 = getelementptr inbounds %struct._php_libxml_node_object, ptr %69, i32 0, i32 0
  store ptr %68, ptr %70, align 8
  store i32 1, ptr %8, align 4
  %71 = load ptr, ptr %6, align 8
  %72 = load ptr, ptr %5, align 8
  %73 = getelementptr inbounds %struct._php_libxml_node_object, ptr %72, i32 0, i32 0
  %74 = load ptr, ptr %73, align 8
  %75 = getelementptr inbounds %struct._php_libxml_node_ptr, ptr %74, i32 0, i32 0
  store ptr %71, ptr %75, align 8
  %76 = load ptr, ptr %5, align 8
  %77 = getelementptr inbounds %struct._php_libxml_node_object, ptr %76, i32 0, i32 0
  %78 = load ptr, ptr %77, align 8
  %79 = getelementptr inbounds %struct._php_libxml_node_ptr, ptr %78, i32 0, i32 1
  store i32 1, ptr %79, align 8
  %80 = load ptr, ptr %7, align 8
  %81 = load ptr, ptr %5, align 8
  %82 = getelementptr inbounds %struct._php_libxml_node_object, ptr %81, i32 0, i32 0
  %83 = load ptr, ptr %82, align 8
  %84 = getelementptr inbounds %struct._php_libxml_node_ptr, ptr %83, i32 0, i32 2
  store ptr %80, ptr %84, align 8
  %85 = load ptr, ptr %5, align 8
  %86 = getelementptr inbounds %struct._php_libxml_node_object, ptr %85, i32 0, i32 0
  %87 = load ptr, ptr %86, align 8
  %88 = load ptr, ptr %6, align 8
  %89 = getelementptr inbounds %struct._xmlNode, ptr %88, i32 0, i32 0
  store ptr %87, ptr %89, align 8
  br label %90

90:                                               ; preds = %67, %66
  br label %91

91:                                               ; preds = %90, %11, %3
  %92 = load i32, ptr %8, align 4
  store i32 %92, ptr %4, align 4
  br label %93

93:                                               ; preds = %91, %27
  %94 = load i32, ptr %4, align 4
  ret i32 %94
}