; Function Attrs: nounwind uwtable
define i32 @php_libxml_increment_node_ptr(ptr noundef %0, ptr noundef %1, ptr noundef %2) local_unnamed_addr #0 {
  %4 = icmp ne ptr %0, null
  %5 = icmp ne ptr %1, null
  %or.cond = and i1 %4, %5
  br i1 %or.cond, label %6, label %34

6:                                                ; preds = %3
  %7 = load ptr, ptr %0, align 8
  %.not = icmp eq ptr %7, null
  br i1 %.not, label %19, label %8

8:                                                ; preds = %6
  %9 = load ptr, ptr %7, align 8
  %10 = icmp eq ptr %9, %1
  %11 = getelementptr inbounds i8, ptr %7, i64 8
  %12 = load i32, ptr %11, align 8
  br i1 %10, label %34, label %13

13:                                               ; preds = %8
  %14 = add nsw i32 %12, -1
  store i32 %14, ptr %11, align 8
  %15 = icmp eq i32 %14, 0
  br i1 %15, label %16, label %php_libxml_decrement_node_ptr.exit

16:                                               ; preds = %13
  %.not13.i = icmp eq ptr %9, null
  br i1 %.not13.i, label %18, label %17

17:                                               ; preds = %16
  store ptr null, ptr %9, align 8
  br label %18

18:                                               ; preds = %17, %16
  tail call void @_efree(ptr noundef nonnull %7) #17
  br label %php_libxml_decrement_node_ptr.exit

php_libxml_decrement_node_ptr.exit:               ; preds = %13, %18
  store ptr null, ptr %0, align 8
  br label %19

19:                                               ; preds = %php_libxml_decrement_node_ptr.exit, %6
  %20 = load ptr, ptr %1, align 8
  %.not29 = icmp eq ptr %20, null
  br i1 %.not29, label %30, label %21

21:                                               ; preds = %19
  store ptr %20, ptr %0, align 8
  %22 = getelementptr inbounds i8, ptr %20, i64 8
  %23 = load i32, ptr %22, align 8
  %24 = add nsw i32 %23, 1
  store i32 %24, ptr %22, align 8
  %25 = load ptr, ptr %0, align 8
  %26 = getelementptr inbounds i8, ptr %25, i64 16
  %27 = load ptr, ptr %26, align 8
  %28 = icmp eq ptr %27, null
  br i1 %28, label %29, label %34

29:                                               ; preds = %21
  store ptr %2, ptr %26, align 8
  br label %34

30:                                               ; preds = %19
  %31 = tail call noalias ptr @_emalloc_24() #17
  store ptr %31, ptr %0, align 8
  store ptr %1, ptr %31, align 8
  %32 = getelementptr inbounds i8, ptr %31, i64 8
  store i32 1, ptr %32, align 8
  %33 = getelementptr inbounds i8, ptr %31, i64 16
  store ptr %2, ptr %33, align 8
  store ptr %31, ptr %1, align 8
  br label %34

34:                                               ; preds = %8, %3, %21, %29, %30
  %.024 = phi i32 [ %24, %29 ], [ %24, %21 ], [ 1, %30 ], [ -1, %3 ], [ %12, %8 ]
  ret i32 %.024
}